target datalayout = "e-m:e-p270:32:32-p271:32:32-p272:64:64-i64:64-i128:128-f80:128-n8:16:32:64-S128"
target triple = "x86_64-pc-linux-gnu"

@.str.3336 = private unnamed_addr constant [20 x i8] c"Cisco NetFlow/IPFIX\00", align 1
@.str.3337 = private unnamed_addr constant [6 x i8] c"CFLOW\00", align 1
@.str.3338 = private unnamed_addr constant [6 x i8] c"cflow\00", align 1
@proto_netflow = internal global i32 0, align 4
@.str.3339 = private unnamed_addr constant [8 x i8] c"netflow\00", align 1
@netflow_handle = internal global ptr null, align 8
@.str.3340 = private unnamed_addr constant [12 x i8] c"netflow_tcp\00", align 1
@netflow_tcp_handle = internal global ptr null, align 8
@global_netflow_ports = internal global ptr null, align 8
@.str.3341 = private unnamed_addr constant [10 x i8] c"2055,9996\00", align 1
@global_ipfix_ports = internal global ptr null, align 8
@.str.3342 = private unnamed_addr constant [5 x i8] c"4739\00", align 1
@.str.3343 = private unnamed_addr constant [9 x i8] c"udp.port\00", align 1
@.str.3344 = private unnamed_addr constant [14 x i8] c"netflow.ports\00", align 1
@.str.3345 = private unnamed_addr constant [20 x i8] c"NetFlow UDP Port(s)\00", align 1
@.str.3346 = private unnamed_addr constant [58 x i8] c"Set the port(s) for NetFlow messages (default: 2055,9996)\00", align 1
@.str.3347 = private unnamed_addr constant [12 x i8] c"ipfix.ports\00", align 1
@.str.3348 = private unnamed_addr constant [27 x i8] c"IPFIX UDP/TCP/SCTP Port(s)\00", align 1
@.str.3349 = private unnamed_addr constant [51 x i8] c"Set the port(s) for IPFIX messages (default: 4739)\00", align 1
@.str.3350 = private unnamed_addr constant [20 x i8] c"max_template_fields\00", align 1
@.str.3351 = private unnamed_addr constant [47 x i8] c"Maximum number of fields allowed in a template\00", align 1
@.str.3352 = private unnamed_addr constant [93 x i8] c"Set the number of fields allowed in a template.  Use 0 (zero) for unlimited.   (default: 60)\00", align 1
@v9_tmplt_max_fields = internal global i32 60, align 4
@.str.3353 = private unnamed_addr constant [10 x i8] c"desegment\00", align 1
@.str.3354 = private unnamed_addr constant [64 x i8] c"Reassemble Netflow v10 messages spanning multiple TCP segments.\00", align 1
@.str.3355 = private unnamed_addr constant [215 x i8] c"Whether the Netflow/Ipfix dissector should reassemble messages spanning multiple TCP segments.  To use this option, you must also enable \22Allow subdissectors to reassemble TCP streams\22 in the TCP protocol settings.\00", align 1
@netflow_preference_desegment = internal global i8 1, align 1
@.str.3356 = private unnamed_addr constant [19 x i8] c"tcpflags_1byte_cwr\00", align 1
@.str.3357 = private unnamed_addr constant [53 x i8] c"TCP flags: Decode first two bits of 1 byte TCP flags\00", align 1
@.str.3358 = private unnamed_addr constant [93 x i8] c"Whether the first two bits of 1 byte TCP flags should be decoded as CWR and ECE or reserved.\00", align 1
@netflow_preference_tcpflags_1byte_cwr = internal global i8 0, align 1
@v9_v10_tmplt_table = hidden global ptr null, align 8

; Function Attrs: null_pointer_is_valid sspstrong uwtable
define hidden void @proto_register_netflow() #0 {
  %1 = alloca ptr, align 8
  %2 = alloca ptr, align 8
  call void @llvm.lifetime.start.p0(i64 8, ptr %1) #16
  call void @llvm.lifetime.start.p0(i64 8, ptr %2) #16
  %3 = call i32 @proto_register_protocol(ptr noundef @.str.3336, ptr noundef @.str.3337, ptr noundef @.str.3338)
  store i32 %3, ptr @proto_netflow, align 4
  %4 = load i32, ptr @proto_netflow, align 4
  %5 = call ptr @register_dissector(ptr noundef @.str.3339, ptr noundef @dissect_netflow, i32 noundef %4)
  store ptr %5, ptr @netflow_handle, align 8
  %6 = load i32, ptr @proto_netflow, align 4
  %7 = call ptr @register_dissector(ptr noundef @.str.3340, ptr noundef @dissect_tcp_netflow, i32 noundef %6)
  store ptr %7, ptr @netflow_tcp_handle, align 8
  %8 = load i32, ptr @proto_netflow, align 4
  %9 = call ptr @register_dissector(ptr noundef @.str.3338, ptr noundef @dissect_netflow, i32 noundef %8)
  %10 = load i32, ptr @proto_netflow, align 4
  call void @proto_register_field_array(i32 noundef %10, ptr noundef @proto_register_netflow.hf, i32 noundef 1513)
  call void @proto_register_subtree_array(ptr noundef @proto_register_netflow.ett, i32 noundef 16)
  %11 = load i32, ptr @proto_netflow, align 4
  %12 = call ptr @expert_register_protocol(i32 noundef %11)
  store ptr %12, ptr %2, align 8
  %13 = load ptr, ptr %2, align 8
  call void @expert_register_field_array(ptr noundef %13, ptr noundef @proto_register_netflow.ei, i32 noundef 13)
  %14 = load i32, ptr @proto_netflow, align 4
  %15 = call ptr @prefs_register_protocol(i32 noundef %14, ptr noundef @proto_reg_handoff_netflow)
  store ptr %15, ptr %1, align 8
  %16 = call ptr @wmem_epan_scope()
  %17 = call i32 @range_convert_str(ptr noundef %16, ptr noundef @global_netflow_ports, ptr noundef @.str.3341, i32 noundef 65535)
  %18 = call ptr @wmem_epan_scope()
  %19 = call i32 @range_convert_str(ptr noundef %18, ptr noundef @global_ipfix_ports, ptr noundef @.str.3342, i32 noundef 65535)
  %20 = load ptr, ptr %1, align 8
  call void @prefs_register_obsolete_preference(ptr noundef %20, ptr noundef @.str.3343)
  %21 = load ptr, ptr %1, align 8
  call void @prefs_register_range_preference(ptr noundef %21, ptr noundef @.str.3344, ptr noundef @.str.3345, ptr noundef @.str.3346, ptr noundef @global_netflow_ports, i32 noundef 65535)
  %22 = load ptr, ptr %1, align 8
  call void @prefs_register_range_preference(ptr noundef %22, ptr noundef @.str.3347, ptr noundef @.str.3348, ptr noundef @.str.3349, ptr noundef @global_ipfix_ports, i32 noundef 65535)
  %23 = load ptr, ptr %1, align 8
  call void @prefs_register_uint_preference(ptr noundef %23, ptr noundef @.str.3350, ptr noundef @.str.3351, ptr noundef @.str.3352, i32 noundef 10, ptr noundef @v9_tmplt_max_fields)
  %24 = load ptr, ptr %1, align 8
  call void @prefs_register_bool_preference(ptr noundef %24, ptr noundef @.str.3353, ptr noundef @.str.3354, ptr noundef @.str.3355, ptr noundef @netflow_preference_desegment)
  %25 = load ptr, ptr %1, align 8
  call void @prefs_register_bool_preference(ptr noundef %25, ptr noundef @.str.3356, ptr noundef @.str.3357, ptr noundef @.str.3358, ptr noundef @netflow_preference_tcpflags_1byte_cwr)
  %26 = call ptr @wmem_epan_scope()
  %27 = call ptr @wmem_file_scope()
  %28 = call noalias ptr @wmem_map_new_autoreset(ptr noundef %26, ptr noundef %27, ptr noundef @v9_v10_tmplt_table_hash, ptr noundef @v9_v10_tmplt_table_equal)
  store ptr %28, ptr @v9_v10_tmplt_table, align 8
  call void @llvm.lifetime.end.p0(i64 8, ptr %2) #16
  call void @llvm.lifetime.end.p0(i64 8, ptr %1) #16
  ret void
}