; Function Attrs: null_pointer_is_valid sspstrong uwtable
define hidden void @proto_register_netflow() local_unnamed_addr #0 {
  %1 = tail call i32 @proto_register_protocol(ptr noundef nonnull @.str.3336, ptr noundef nonnull @.str.3337, ptr noundef nonnull @.str.3338)
  store i32 %1, ptr @proto_netflow, align 4
  %2 = tail call ptr @register_dissector(ptr noundef nonnull @.str.3339, ptr noundef nonnull @dissect_netflow, i32 noundef %1)
  store ptr %2, ptr @netflow_handle, align 8
  %3 = load i32, ptr @proto_netflow, align 4
  %4 = tail call ptr @register_dissector(ptr noundef nonnull @.str.3340, ptr noundef nonnull @dissect_tcp_netflow, i32 noundef %3)
  store ptr %4, ptr @netflow_tcp_handle, align 8
  %5 = load i32, ptr @proto_netflow, align 4
  %6 = tail call ptr @register_dissector(ptr noundef nonnull @.str.3338, ptr noundef nonnull @dissect_netflow, i32 noundef %5)
  %7 = load i32, ptr @proto_netflow, align 4
  tail call void @proto_register_field_array(i32 noundef %7, ptr noundef nonnull @proto_register_netflow.hf, i32 noundef 1513)
  tail call void @proto_register_subtree_array(ptr noundef nonnull @proto_register_netflow.ett, i32 noundef 16)
  %8 = load i32, ptr @proto_netflow, align 4
  %9 = tail call ptr @expert_register_protocol(i32 noundef %8)
  tail call void @expert_register_field_array(ptr noundef %9, ptr noundef nonnull @proto_register_netflow.ei, i32 noundef 13)
  %10 = load i32, ptr @proto_netflow, align 4
  %11 = tail call ptr @prefs_register_protocol(i32 noundef %10, ptr noundef nonnull @proto_reg_handoff_netflow)
  %12 = tail call ptr @wmem_epan_scope()
  %13 = tail call i32 @range_convert_str(ptr noundef %12, ptr noundef nonnull @global_netflow_ports, ptr noundef nonnull @.str.3341, i32 noundef 65535)
  %14 = tail call ptr @wmem_epan_scope()
  %15 = tail call i32 @range_convert_str(ptr noundef %14, ptr noundef nonnull @global_ipfix_ports, ptr noundef nonnull @.str.3342, i32 noundef 65535)
  tail call void @prefs_register_obsolete_preference(ptr noundef %11, ptr noundef nonnull @.str.3343)
  tail call void @prefs_register_range_preference(ptr noundef %11, ptr noundef nonnull @.str.3344, ptr noundef nonnull @.str.3345, ptr noundef nonnull @.str.3346, ptr noundef nonnull @global_netflow_ports, i32 noundef 65535)
  tail call void @prefs_register_range_preference(ptr noundef %11, ptr noundef nonnull @.str.3347, ptr noundef nonnull @.str.3348, ptr noundef nonnull @.str.3349, ptr noundef nonnull @global_ipfix_ports, i32 noundef 65535)
  tail call void @prefs_register_uint_preference(ptr noundef %11, ptr noundef nonnull @.str.3350, ptr noundef nonnull @.str.3351, ptr noundef nonnull @.str.3352, i32 noundef 10, ptr noundef nonnull @v9_tmplt_max_fields)
  tail call void @prefs_register_bool_preference(ptr noundef %11, ptr noundef nonnull @.str.3353, ptr noundef nonnull @.str.3354, ptr noundef nonnull @.str.3355, ptr noundef nonnull @netflow_preference_desegment)
  tail call void @prefs_register_bool_preference(ptr noundef %11, ptr noundef nonnull @.str.3356, ptr noundef nonnull @.str.3357, ptr noundef nonnull @.str.3358, ptr noundef nonnull @netflow_preference_tcpflags_1byte_cwr)
  %16 = tail call ptr @wmem_epan_scope()
  %17 = tail call ptr @wmem_file_scope()
  %18 = tail call noalias ptr @wmem_map_new_autoreset(ptr noundef %16, ptr noundef %17, ptr noundef nonnull @v9_v10_tmplt_table_hash, ptr noundef nonnull @v9_v10_tmplt_table_equal)
  store ptr %18, ptr @v9_v10_tmplt_table, align 8
  ret void
}